(dp0
S'products'
p1
(lp2
ccopy_reg
_reconstructor
p3
(cproduct
Product
p4
c__builtin__
object
p5
Ntp6
Rp7
(dp8
S'price'
p9
I12
sS'pid'
p10
I0
sS'name'
p11
S'milk'
p12
sbag3
(g4
g5
Ntp13
Rp14
(dp15
g9
I10
sg10
I1
sg11
S'bread'
p16
sbag3
(g4
g5
Ntp17
Rp18
(dp19
g9
I40
sg10
I2
sg11
S'\xd1\x88\xd1\x82\xd0\xb0\xd0\xbd\xd1\x8b'
p20
sbag3
(g4
g5
Ntp21
Rp22
(dp23
g9
I120
sg10
I3
sg11
S'meat'
p24
sbag3
(g4
g5
Ntp25
Rp26
(dp27
g9
I1000000
sg10
I4
sg11
S'ODB-lab1'
p28
sbasS'orders'
p29
(lp30
g3
(corder
Order
p31
g5
Ntp32
Rp33
(dp34
S'oid'
p35
I0
sg10
I0
sbag3
(g31
g5
Ntp36
Rp37
(dp38
g35
I0
sg10
I1
sbag3
(g31
g5
Ntp39
Rp40
(dp41
g35
I0
sg10
I3
sbag3
(g31
g5
Ntp42
Rp43
(dp44
g35
I1
sg10
I2
sbasS'plast'
p45
I0
s.