(dp0
S'products'
p1
(lp2
ccopy_reg
_reconstructor
p3
(cproduct
Product
p4
c__builtin__
object
p5
Ntp6
Rp7
(dp8
S'_price'
p9
I10
sS'pid'
p10
I0
sS'_name'
p11
S'bread'
p12
sbag3
(g4
g5
Ntp13
Rp14
(dp15
g9
I22
sg10
I1
sg11
S'milk'
p16
sbag3
(g4
g5
Ntp17
Rp18
(dp19
g9
I120
sg10
I2
sg11
S'meat'
p20
sbag3
(g4
g5
Ntp21
Rp22
(dp23
g9
I40
sg10
I3
sg11
S'\xd1\x88\xd1\x82\xd0\xb0\xd0\xbd\xd1\x8b'
p24
sbag3
(g4
g5
Ntp25
Rp26
(dp27
g9
I1000000
sg10
I4
sg11
S'ODB-lab1'
p28
sbag3
(g4
g5
Ntp29
Rp30
(dp31
g9
I30
sg10
I5
sg11
S'banana'
p32
sbag3
(g4
g5
Ntp33
Rp34
(dp35
g9
I101
sg10
I6
sg11
S'pineapple'
p36
sbasS'orders'
p37
(lp38
g3
(corder
Order
p39
g5
Ntp40
Rp41
(dp42
S'oid'
p43
I0
sg10
I0
sbag3
(g39
g5
Ntp44
Rp45
(dp46
g43
I0
sg10
I1
sbag3
(g39
g5
Ntp47
Rp48
(dp49
g43
I0
sg10
I2
sbag3
(g39
g5
Ntp50
Rp51
(dp52
g43
I1
sg10
I5
sbag3
(g39
g5
Ntp53
Rp54
(dp55
g43
I1
sg10
I6
sbag3
(g39
g5
Ntp56
Rp57
(dp58
g43
I2
sg10
I1
sbasS'plast'
p59
I7
s.